target datalayout = "e-m:e-p270:32:32-p271:32:32-p272:64:64-i64:64-i128:128-f80:128-n8:16:32:64-S128"
target triple = "x86_64-pc-linux-gnu"

%struct.DefElem = type { i32, ptr, ptr, ptr, i32, i32 }

@.str.1 = private unnamed_addr constant [15 x i8] c"functioncmds.c\00", align 1
@.str.76 = private unnamed_addr constant [42 x i8] c"invalid attribute in procedure definition\00", align 1
@.str.90 = private unnamed_addr constant [11 x i8] c"volatility\00", align 1
@.str.91 = private unnamed_addr constant [7 x i8] c"strict\00", align 1
@.str.92 = private unnamed_addr constant [9 x i8] c"security\00", align 1
@.str.93 = private unnamed_addr constant [10 x i8] c"leakproof\00", align 1
@.str.94 = private unnamed_addr constant [4 x i8] c"set\00", align 1
@.str.95 = private unnamed_addr constant [5 x i8] c"cost\00", align 1
@.str.96 = private unnamed_addr constant [5 x i8] c"rows\00", align 1
@.str.97 = private unnamed_addr constant [8 x i8] c"support\00", align 1
@.str.98 = private unnamed_addr constant [9 x i8] c"parallel\00", align 1
@__func__.compute_common_attribute = private unnamed_addr constant [25 x i8] c"compute_common_attribute\00", align 1

; Function Attrs: nounwind uwtable
define internal zeroext i1 @compute_common_attribute(ptr noundef %0, i1 noundef zeroext %1, ptr noundef %2, ptr noundef %3, ptr noundef %4, ptr noundef %5, ptr noundef %6, ptr noundef %7, ptr noundef %8, ptr noundef %9, ptr noundef %10, ptr noundef %11) #0 {
  %13 = alloca i1, align 1
  %14 = alloca ptr, align 8
  %15 = alloca i8, align 1
  %16 = alloca ptr, align 8
  %17 = alloca ptr, align 8
  %18 = alloca ptr, align 8
  %19 = alloca ptr, align 8
  %20 = alloca ptr, align 8
  %21 = alloca ptr, align 8
  %22 = alloca ptr, align 8
  %23 = alloca ptr, align 8
  %24 = alloca ptr, align 8
  %25 = alloca ptr, align 8
  store ptr %0, ptr %14, align 8
  %26 = zext i1 %1 to i8
  store i8 %26, ptr %15, align 1
  store ptr %2, ptr %16, align 8
  store ptr %3, ptr %17, align 8
  store ptr %4, ptr %18, align 8
  store ptr %5, ptr %19, align 8
  store ptr %6, ptr %20, align 8
  store ptr %7, ptr %21, align 8
  store ptr %8, ptr %22, align 8
  store ptr %9, ptr %23, align 8
  store ptr %10, ptr %24, align 8
  store ptr %11, ptr %25, align 8
  %27 = load ptr, ptr %16, align 8
  %28 = getelementptr inbounds nuw %struct.DefElem, ptr %27, i32 0, i32 2
  %29 = load ptr, ptr %28, align 8
  %30 = call i32 @strcmp(ptr noundef %29, ptr noundef @.str.90) #11
  %31 = icmp eq i32 %30, 0
  br i1 %31, label %32, label %46

32:                                               ; preds = %12
  %33 = load i8, ptr %15, align 1, !range !4, !noundef !5
  %34 = trunc i8 %33 to i1
  br i1 %34, label %35, label %36

35:                                               ; preds = %32
  br label %206

36:                                               ; preds = %32
  %37 = load ptr, ptr %17, align 8
  %38 = load ptr, ptr %37, align 8
  %39 = icmp ne ptr %38, null
  br i1 %39, label %40, label %43

40:                                               ; preds = %36
  %41 = load ptr, ptr %16, align 8
  %42 = load ptr, ptr %14, align 8
  call void @errorConflictingDefElem(ptr noundef %41, ptr noundef %42) #12
  unreachable

43:                                               ; preds = %36
  %44 = load ptr, ptr %16, align 8
  %45 = load ptr, ptr %17, align 8
  store ptr %44, ptr %45, align 8
  br label %205

46:                                               ; preds = %12
  %47 = load ptr, ptr %16, align 8
  %48 = getelementptr inbounds nuw %struct.DefElem, ptr %47, i32 0, i32 2
  %49 = load ptr, ptr %48, align 8
  %50 = call i32 @strcmp(ptr noundef %49, ptr noundef @.str.91) #11
  %51 = icmp eq i32 %50, 0
  br i1 %51, label %52, label %66

52:                                               ; preds = %46
  %53 = load i8, ptr %15, align 1, !range !4, !noundef !5
  %54 = trunc i8 %53 to i1
  br i1 %54, label %55, label %56

55:                                               ; preds = %52
  br label %206

56:                                               ; preds = %52
  %57 = load ptr, ptr %18, align 8
  %58 = load ptr, ptr %57, align 8
  %59 = icmp ne ptr %58, null
  br i1 %59, label %60, label %63

60:                                               ; preds = %56
  %61 = load ptr, ptr %16, align 8
  %62 = load ptr, ptr %14, align 8
  call void @errorConflictingDefElem(ptr noundef %61, ptr noundef %62) #12
  unreachable

63:                                               ; preds = %56
  %64 = load ptr, ptr %16, align 8
  %65 = load ptr, ptr %18, align 8
  store ptr %64, ptr %65, align 8
  br label %204

66:                                               ; preds = %46
  %67 = load ptr, ptr %16, align 8
  %68 = getelementptr inbounds nuw %struct.DefElem, ptr %67, i32 0, i32 2
  %69 = load ptr, ptr %68, align 8
  %70 = call i32 @strcmp(ptr noundef %69, ptr noundef @.str.92) #11
  %71 = icmp eq i32 %70, 0
  br i1 %71, label %72, label %82

72:                                               ; preds = %66
  %73 = load ptr, ptr %19, align 8
  %74 = load ptr, ptr %73, align 8
  %75 = icmp ne ptr %74, null
  br i1 %75, label %76, label %79

76:                                               ; preds = %72
  %77 = load ptr, ptr %16, align 8
  %78 = load ptr, ptr %14, align 8
  call void @errorConflictingDefElem(ptr noundef %77, ptr noundef %78) #12
  unreachable

79:                                               ; preds = %72
  %80 = load ptr, ptr %16, align 8
  %81 = load ptr, ptr %19, align 8
  store ptr %80, ptr %81, align 8
  br label %203

82:                                               ; preds = %66
  %83 = load ptr, ptr %16, align 8
  %84 = getelementptr inbounds nuw %struct.DefElem, ptr %83, i32 0, i32 2
  %85 = load ptr, ptr %84, align 8
  %86 = call i32 @strcmp(ptr noundef %85, ptr noundef @.str.93) #11
  %87 = icmp eq i32 %86, 0
  br i1 %87, label %88, label %102

88:                                               ; preds = %82
  %89 = load i8, ptr %15, align 1, !range !4, !noundef !5
  %90 = trunc i8 %89 to i1
  br i1 %90, label %91, label %92

91:                                               ; preds = %88
  br label %206

92:                                               ; preds = %88
  %93 = load ptr, ptr %20, align 8
  %94 = load ptr, ptr %93, align 8
  %95 = icmp ne ptr %94, null
  br i1 %95, label %96, label %99

96:                                               ; preds = %92
  %97 = load ptr, ptr %16, align 8
  %98 = load ptr, ptr %14, align 8
  call void @errorConflictingDefElem(ptr noundef %97, ptr noundef %98) #12
  unreachable

99:                                               ; preds = %92
  %100 = load ptr, ptr %16, align 8
  %101 = load ptr, ptr %20, align 8
  store ptr %100, ptr %101, align 8
  br label %202

102:                                              ; preds = %82
  %103 = load ptr, ptr %16, align 8
  %104 = getelementptr inbounds nuw %struct.DefElem, ptr %103, i32 0, i32 2
  %105 = load ptr, ptr %104, align 8
  %106 = call i32 @strcmp(ptr noundef %105, ptr noundef @.str.94) #11
  %107 = icmp eq i32 %106, 0
  br i1 %107, label %108, label %116

108:                                              ; preds = %102
  %109 = load ptr, ptr %21, align 8
  %110 = load ptr, ptr %109, align 8
  %111 = load ptr, ptr %16, align 8
  %112 = getelementptr inbounds nuw %struct.DefElem, ptr %111, i32 0, i32 3
  %113 = load ptr, ptr %112, align 8
  %114 = call ptr @lappend(ptr noundef %110, ptr noundef %113)
  %115 = load ptr, ptr %21, align 8
  store ptr %114, ptr %115, align 8
  br label %201

116:                                              ; preds = %102
  %117 = load ptr, ptr %16, align 8
  %118 = getelementptr inbounds nuw %struct.DefElem, ptr %117, i32 0, i32 2
  %119 = load ptr, ptr %118, align 8
  %120 = call i32 @strcmp(ptr noundef %119, ptr noundef @.str.95) #11
  %121 = icmp eq i32 %120, 0
  br i1 %121, label %122, label %136

122:                                              ; preds = %116
  %123 = load i8, ptr %15, align 1, !range !4, !noundef !5
  %124 = trunc i8 %123 to i1
  br i1 %124, label %125, label %126

125:                                              ; preds = %122
  br label %206

126:                                              ; preds = %122
  %127 = load ptr, ptr %22, align 8
  %128 = load ptr, ptr %127, align 8
  %129 = icmp ne ptr %128, null
  br i1 %129, label %130, label %133

130:                                              ; preds = %126
  %131 = load ptr, ptr %16, align 8
  %132 = load ptr, ptr %14, align 8
  call void @errorConflictingDefElem(ptr noundef %131, ptr noundef %132) #12
  unreachable

133:                                              ; preds = %126
  %134 = load ptr, ptr %16, align 8
  %135 = load ptr, ptr %22, align 8
  store ptr %134, ptr %135, align 8
  br label %200

136:                                              ; preds = %116
  %137 = load ptr, ptr %16, align 8
  %138 = getelementptr inbounds nuw %struct.DefElem, ptr %137, i32 0, i32 2
  %139 = load ptr, ptr %138, align 8
  %140 = call i32 @strcmp(ptr noundef %139, ptr noundef @.str.96) #11
  %141 = icmp eq i32 %140, 0
  br i1 %141, label %142, label %156

142:                                              ; preds = %136
  %143 = load i8, ptr %15, align 1, !range !4, !noundef !5
  %144 = trunc i8 %143 to i1
  br i1 %144, label %145, label %146

145:                                              ; preds = %142
  br label %206

146:                                              ; preds = %142
  %147 = load ptr, ptr %23, align 8
  %148 = load ptr, ptr %147, align 8
  %149 = icmp ne ptr %148, null
  br i1 %149, label %150, label %153

150:                                              ; preds = %146
  %151 = load ptr, ptr %16, align 8
  %152 = load ptr, ptr %14, align 8
  call void @errorConflictingDefElem(ptr noundef %151, ptr noundef %152) #12
  unreachable

153:                                              ; preds = %146
  %154 = load ptr, ptr %16, align 8
  %155 = load ptr, ptr %23, align 8
  store ptr %154, ptr %155, align 8
  br label %199

156:                                              ; preds = %136
  %157 = load ptr, ptr %16, align 8
  %158 = getelementptr inbounds nuw %struct.DefElem, ptr %157, i32 0, i32 2
  %159 = load ptr, ptr %158, align 8
  %160 = call i32 @strcmp(ptr noundef %159, ptr noundef @.str.97) #11
  %161 = icmp eq i32 %160, 0
  br i1 %161, label %162, label %176

162:                                              ; preds = %156
  %163 = load i8, ptr %15, align 1, !range !4, !noundef !5
  %164 = trunc i8 %163 to i1
  br i1 %164, label %165, label %166

165:                                              ; preds = %162
  br label %206

166:                                              ; preds = %162
  %167 = load ptr, ptr %24, align 8
  %168 = load ptr, ptr %167, align 8
  %169 = icmp ne ptr %168, null
  br i1 %169, label %170, label %173

170:                                              ; preds = %166
  %171 = load ptr, ptr %16, align 8
  %172 = load ptr, ptr %14, align 8
  call void @errorConflictingDefElem(ptr noundef %171, ptr noundef %172) #12
  unreachable

173:                                              ; preds = %166
  %174 = load ptr, ptr %16, align 8
  %175 = load ptr, ptr %24, align 8
  store ptr %174, ptr %175, align 8
  br label %198

176:                                              ; preds = %156
  %177 = load ptr, ptr %16, align 8
  %178 = getelementptr inbounds nuw %struct.DefElem, ptr %177, i32 0, i32 2
  %179 = load ptr, ptr %178, align 8
  %180 = call i32 @strcmp(ptr noundef %179, ptr noundef @.str.98) #11
  %181 = icmp eq i32 %180, 0
  br i1 %181, label %182, label %196

182:                                              ; preds = %176
  %183 = load i8, ptr %15, align 1, !range !4, !noundef !5
  %184 = trunc i8 %183 to i1
  br i1 %184, label %185, label %186

185:                                              ; preds = %182
  br label %206

186:                                              ; preds = %182
  %187 = load ptr, ptr %25, align 8
  %188 = load ptr, ptr %187, align 8
  %189 = icmp ne ptr %188, null
  br i1 %189, label %190, label %193

190:                                              ; preds = %186
  %191 = load ptr, ptr %16, align 8
  %192 = load ptr, ptr %14, align 8
  call void @errorConflictingDefElem(ptr noundef %191, ptr noundef %192) #12
  unreachable

193:                                              ; preds = %186
  %194 = load ptr, ptr %16, align 8
  %195 = load ptr, ptr %25, align 8
  store ptr %194, ptr %195, align 8
  br label %197

196:                                              ; preds = %176
  store i1 false, ptr %13, align 1
  br label %222

197:                                              ; preds = %193
  br label %198

198:                                              ; preds = %197, %173
  br label %199

199:                                              ; preds = %198, %153
  br label %200

200:                                              ; preds = %199, %133
  br label %201

201:                                              ; preds = %200, %108
  br label %202

202:                                              ; preds = %201, %99
  br label %203

203:                                              ; preds = %202, %79
  br label %204

204:                                              ; preds = %203, %63
  br label %205

205:                                              ; preds = %204, %43
  store i1 true, ptr %13, align 1
  br label %222

206:                                              ; preds = %185, %165, %145, %125, %91, %55, %35
  br label %207

207:                                              ; preds = %206
  br i1 true, label %208, label %210

208:                                              ; preds = %207
  %209 = call zeroext i1 @errstart_cold(i32 noundef 21, ptr noundef null) #10
  br i1 %209, label %212, label %220

210:                                              ; preds = %207
  %211 = call zeroext i1 @errstart(i32 noundef 21, ptr noundef null)
  br i1 %211, label %212, label %220

212:                                              ; preds = %210, %208
  %213 = call i32 @errcode(i32 noundef 50724996)
  %214 = call i32 (ptr, ...) @errmsg(ptr noundef @.str.76)
  %215 = load ptr, ptr %14, align 8
  %216 = load ptr, ptr %16, align 8
  %217 = getelementptr inbounds nuw %struct.DefElem, ptr %216, i32 0, i32 5
  %218 = load i32, ptr %217, align 4
  %219 = call i32 @parser_errposition(ptr noundef %215, i32 noundef %218)
  call void @errfinish(ptr noundef @.str.1, i32 noundef 612, ptr noundef @__func__.compute_common_attribute)
  br label %220

220:                                              ; preds = %212, %210, %208
  unreachable

221:                                              ; No predecessors!
  store i1 false, ptr %13, align 1
  br label %222

222:                                              ; preds = %221, %205, %196
  %223 = load i1, ptr %13, align 1
  ret i1 %223
}