; Function Attrs: nounwind uwtable
define internal fastcc noundef zeroext i1 @compute_common_attribute(ptr noundef %0, i1 noundef zeroext %1, ptr noundef %2, ptr noundef nonnull captures(none) %3, ptr noundef nonnull captures(none) %4, ptr noundef nonnull captures(none) %5, ptr noundef nonnull captures(none) %6, ptr noundef nonnull captures(none) %7, ptr noundef nonnull captures(none) %8, ptr noundef nonnull captures(none) %9, ptr noundef nonnull captures(none) %10, ptr noundef nonnull captures(none) %11) unnamed_addr #0 {
  %13 = getelementptr inbounds nuw i8, ptr %2, i64 16
  %14 = load ptr, ptr %13, align 8
  %15 = tail call i32 @strcmp(ptr noundef nonnull dereferenceable(1) %14, ptr noundef nonnull dereferenceable(11) @.str.90) #10
  %16 = icmp eq i32 %15, 0
  br i1 %16, label %17, label %22

17:                                               ; preds = %12
  br i1 %1, label %85, label %18

18:                                               ; preds = %17
  %19 = load ptr, ptr %3, align 8
  %.not67 = icmp eq ptr %19, null
  br i1 %.not67, label %21, label %20

20:                                               ; preds = %18
  tail call void @errorConflictingDefElem(ptr noundef nonnull %2, ptr noundef %0) #11
  unreachable

21:                                               ; preds = %18
  store ptr %2, ptr %3, align 8
  br label %92

22:                                               ; preds = %12
  %23 = tail call i32 @strcmp(ptr noundef nonnull dereferenceable(1) %14, ptr noundef nonnull dereferenceable(7) @.str.91) #10
  %24 = icmp eq i32 %23, 0
  br i1 %24, label %25, label %30

25:                                               ; preds = %22
  br i1 %1, label %85, label %26

26:                                               ; preds = %25
  %27 = load ptr, ptr %4, align 8
  %.not66 = icmp eq ptr %27, null
  br i1 %.not66, label %29, label %28

28:                                               ; preds = %26
  tail call void @errorConflictingDefElem(ptr noundef nonnull %2, ptr noundef %0) #11
  unreachable

29:                                               ; preds = %26
  store ptr %2, ptr %4, align 8
  br label %92

30:                                               ; preds = %22
  %31 = tail call i32 @strcmp(ptr noundef nonnull dereferenceable(1) %14, ptr noundef nonnull dereferenceable(9) @.str.92) #10
  %32 = icmp eq i32 %31, 0
  br i1 %32, label %33, label %37

33:                                               ; preds = %30
  %34 = load ptr, ptr %5, align 8
  %.not65 = icmp eq ptr %34, null
  br i1 %.not65, label %36, label %35

35:                                               ; preds = %33
  tail call void @errorConflictingDefElem(ptr noundef nonnull %2, ptr noundef %0) #11
  unreachable

36:                                               ; preds = %33
  store ptr %2, ptr %5, align 8
  br label %92

37:                                               ; preds = %30
  %38 = tail call i32 @strcmp(ptr noundef nonnull dereferenceable(1) %14, ptr noundef nonnull dereferenceable(10) @.str.93) #10
  %39 = icmp eq i32 %38, 0
  br i1 %39, label %40, label %45

40:                                               ; preds = %37
  br i1 %1, label %85, label %41

41:                                               ; preds = %40
  %42 = load ptr, ptr %6, align 8
  %.not64 = icmp eq ptr %42, null
  br i1 %.not64, label %44, label %43

43:                                               ; preds = %41
  tail call void @errorConflictingDefElem(ptr noundef nonnull %2, ptr noundef %0) #11
  unreachable

44:                                               ; preds = %41
  store ptr %2, ptr %6, align 8
  br label %92

45:                                               ; preds = %37
  %46 = tail call i32 @strcmp(ptr noundef nonnull dereferenceable(1) %14, ptr noundef nonnull dereferenceable(4) @.str.94) #10
  %47 = icmp eq i32 %46, 0
  br i1 %47, label %48, label %53

48:                                               ; preds = %45
  %49 = load ptr, ptr %7, align 8
  %50 = getelementptr inbounds nuw i8, ptr %2, i64 24
  %51 = load ptr, ptr %50, align 8
  %52 = tail call ptr @lappend(ptr noundef %49, ptr noundef %51) #8
  store ptr %52, ptr %7, align 8
  br label %92

53:                                               ; preds = %45
  %54 = tail call i32 @strcmp(ptr noundef nonnull dereferenceable(1) %14, ptr noundef nonnull dereferenceable(5) @.str.95) #10
  %55 = icmp eq i32 %54, 0
  br i1 %55, label %56, label %61

56:                                               ; preds = %53
  br i1 %1, label %85, label %57

57:                                               ; preds = %56
  %58 = load ptr, ptr %8, align 8
  %.not63 = icmp eq ptr %58, null
  br i1 %.not63, label %60, label %59

59:                                               ; preds = %57
  tail call void @errorConflictingDefElem(ptr noundef nonnull %2, ptr noundef %0) #11
  unreachable

60:                                               ; preds = %57
  store ptr %2, ptr %8, align 8
  br label %92

61:                                               ; preds = %53
  %62 = tail call i32 @strcmp(ptr noundef nonnull dereferenceable(1) %14, ptr noundef nonnull dereferenceable(5) @.str.96) #10
  %63 = icmp eq i32 %62, 0
  br i1 %63, label %64, label %69

64:                                               ; preds = %61
  br i1 %1, label %85, label %65

65:                                               ; preds = %64
  %66 = load ptr, ptr %9, align 8
  %.not62 = icmp eq ptr %66, null
  br i1 %.not62, label %68, label %67

67:                                               ; preds = %65
  tail call void @errorConflictingDefElem(ptr noundef nonnull %2, ptr noundef %0) #11
  unreachable

68:                                               ; preds = %65
  store ptr %2, ptr %9, align 8
  br label %92

69:                                               ; preds = %61
  %70 = tail call i32 @strcmp(ptr noundef nonnull dereferenceable(1) %14, ptr noundef nonnull dereferenceable(8) @.str.97) #10
  %71 = icmp eq i32 %70, 0
  br i1 %71, label %72, label %77

72:                                               ; preds = %69
  br i1 %1, label %85, label %73

73:                                               ; preds = %72
  %74 = load ptr, ptr %10, align 8
  %.not61 = icmp eq ptr %74, null
  br i1 %.not61, label %76, label %75

75:                                               ; preds = %73
  tail call void @errorConflictingDefElem(ptr noundef nonnull %2, ptr noundef %0) #11
  unreachable

76:                                               ; preds = %73
  store ptr %2, ptr %10, align 8
  br label %92

77:                                               ; preds = %69
  %78 = tail call i32 @strcmp(ptr noundef nonnull dereferenceable(1) %14, ptr noundef nonnull dereferenceable(9) @.str.98) #10
  %79 = icmp eq i32 %78, 0
  br i1 %79, label %80, label %92

80:                                               ; preds = %77
  br i1 %1, label %85, label %81

81:                                               ; preds = %80
  %82 = load ptr, ptr %11, align 8
  %.not = icmp eq ptr %82, null
  br i1 %.not, label %84, label %83

83:                                               ; preds = %81
  tail call void @errorConflictingDefElem(ptr noundef nonnull %2, ptr noundef %0) #11
  unreachable

84:                                               ; preds = %81
  store ptr %2, ptr %11, align 8
  br label %92

85:                                               ; preds = %80, %72, %64, %56, %40, %25, %17
  %86 = tail call zeroext i1 @errstart_cold(i32 noundef 21, ptr noundef null) #9
  tail call void @llvm.assume(i1 %86)
  %87 = tail call i32 @errcode(i32 noundef 50724996) #8
  %88 = tail call i32 (ptr, ...) @errmsg(ptr noundef nonnull @.str.76) #8
  %89 = getelementptr inbounds nuw i8, ptr %2, i64 36
  %90 = load i32, ptr %89, align 4
  %91 = tail call i32 @parser_errposition(ptr noundef %0, i32 noundef %90) #8
  tail call void @errfinish(ptr noundef nonnull @.str.1, i32 noundef 612, ptr noundef nonnull @__func__.compute_common_attribute) #8
  unreachable

92:                                               ; preds = %21, %36, %48, %68, %84, %76, %60, %44, %29, %77
  %.0 = phi i1 [ false, %77 ], [ true, %29 ], [ true, %44 ], [ true, %60 ], [ true, %76 ], [ true, %84 ], [ true, %68 ], [ true, %48 ], [ true, %36 ], [ true, %21 ]
  ret i1 %.0
}